target datalayout = "e-m:e-p270:32:32-p271:32:32-p272:64:64-i64:64-i128:128-f80:128-n8:16:32:64-S128"
target triple = "x86_64-pc-linux-gnu"

%struct.PROV_XOR_CTX = type { ptr }
%struct.ossl_param_st = type { ptr, i32, ptr, i64, i64 }
%struct.xor_gen_ctx = type { i32, ptr }

@.str.2 = private unnamed_addr constant [31 x i8] c"../openssl/test/tls-provider.c\00", align 1
@.str.11 = private unnamed_addr constant [6 x i8] c"group\00", align 1
@.str.12 = private unnamed_addr constant [13 x i8] c"xorgroup-int\00", align 1
@.str.13 = private unnamed_addr constant [16 x i8] c"xorkemgroup-int\00", align 1

; Function Attrs: nounwind uwtable
define internal i32 @xor_gen_set_params(ptr noundef %0, ptr noundef %1) #0 {
  %3 = alloca i32, align 4
  %4 = alloca ptr, align 8
  %5 = alloca ptr, align 8
  %6 = alloca ptr, align 8
  %7 = alloca ptr, align 8
  %8 = alloca i32, align 4
  store ptr %0, ptr %4, align 8, !tbaa !13
  store ptr %1, ptr %5, align 8, !tbaa !43
  call void @llvm.lifetime.start.p0(i64 8, ptr %6) #8
  %9 = load ptr, ptr %4, align 8, !tbaa !13
  store ptr %9, ptr %6, align 8, !tbaa !45
  call void @llvm.lifetime.start.p0(i64 8, ptr %7) #8
  %10 = load ptr, ptr %6, align 8, !tbaa !45
  %11 = icmp eq ptr %10, null
  br i1 %11, label %12, label %13

12:                                               ; preds = %2
  store i32 0, ptr %3, align 4
  store i32 1, ptr %8, align 4
  br label %38

13:                                               ; preds = %2
  %14 = load ptr, ptr %5, align 8, !tbaa !43
  %15 = call ptr @OSSL_PARAM_locate_const(ptr noundef %14, ptr noundef @.str.11)
  store ptr %15, ptr %7, align 8, !tbaa !43
  %16 = load ptr, ptr %7, align 8, !tbaa !43
  %17 = icmp ne ptr %16, null
  br i1 %17, label %18, label %37

18:                                               ; preds = %13
  %19 = load ptr, ptr %7, align 8, !tbaa !43
  %20 = getelementptr inbounds nuw %struct.ossl_param_st, ptr %19, i32 0, i32 1
  %21 = load i32, ptr %20, align 8, !tbaa !50
  %22 = icmp ne i32 %21, 4
  br i1 %22, label %35, label %23

23:                                               ; preds = %18
  %24 = load ptr, ptr %7, align 8, !tbaa !43
  %25 = getelementptr inbounds nuw %struct.ossl_param_st, ptr %24, i32 0, i32 2
  %26 = load ptr, ptr %25, align 8, !tbaa !37
  %27 = call i32 @strcmp(ptr noundef %26, ptr noundef @.str.12) #9
  %28 = icmp ne i32 %27, 0
  br i1 %28, label %29, label %36

29:                                               ; preds = %23
  %30 = load ptr, ptr %7, align 8, !tbaa !43
  %31 = getelementptr inbounds nuw %struct.ossl_param_st, ptr %30, i32 0, i32 2
  %32 = load ptr, ptr %31, align 8, !tbaa !37
  %33 = call i32 @strcmp(ptr noundef %32, ptr noundef @.str.13) #9
  %34 = icmp ne i32 %33, 0
  br i1 %34, label %35, label %36

35:                                               ; preds = %29, %18
  store i32 0, ptr %3, align 4
  store i32 1, ptr %8, align 4
  br label %38

36:                                               ; preds = %29, %23
  br label %37

37:                                               ; preds = %36, %13
  store i32 1, ptr %3, align 4
  store i32 1, ptr %8, align 4
  br label %38

38:                                               ; preds = %37, %35, %12
  call void @llvm.lifetime.end.p0(i64 8, ptr %7) #8
  call void @llvm.lifetime.end.p0(i64 8, ptr %6) #8
  %39 = load i32, ptr %3, align 4
  ret i32 %39
}

; Function Attrs: nounwind uwtable
define internal ptr @xor_gen_init(ptr noundef %0, i32 noundef %1, ptr noundef %2) #0 {
  %4 = alloca ptr, align 8
  %5 = alloca ptr, align 8
  %6 = alloca i32, align 4
  %7 = alloca ptr, align 8
  %8 = alloca ptr, align 8
  %9 = alloca i32, align 4
  store ptr %0, ptr %5, align 8, !tbaa !13
  store i32 %1, ptr %6, align 4, !tbaa !27
  store ptr %2, ptr %7, align 8, !tbaa !43
  call void @llvm.lifetime.start.p0(i64 8, ptr %8) #8
  store ptr null, ptr %8, align 8, !tbaa !45
  %10 = load i32, ptr %6, align 4, !tbaa !27
  %11 = and i32 %10, 7
  %12 = icmp eq i32 %11, 0
  br i1 %12, label %13, label %14

13:                                               ; preds = %3
  store ptr null, ptr %4, align 8
  store i32 1, ptr %9, align 4
  br label %35

14:                                               ; preds = %3
  %15 = call noalias ptr @CRYPTO_zalloc(i64 noundef 16, ptr noundef @.str.2, i32 noundef 933)
  store ptr %15, ptr %8, align 8, !tbaa !45
  %16 = icmp ne ptr %15, null
  br i1 %16, label %17, label %21

17:                                               ; preds = %14
  %18 = load i32, ptr %6, align 4, !tbaa !27
  %19 = load ptr, ptr %8, align 8, !tbaa !45
  %20 = getelementptr inbounds nuw %struct.xor_gen_ctx, ptr %19, i32 0, i32 0
  store i32 %18, ptr %20, align 8, !tbaa !47
  br label %21

21:                                               ; preds = %17, %14
  %22 = load ptr, ptr %5, align 8, !tbaa !13
  %23 = getelementptr inbounds nuw %struct.PROV_XOR_CTX, ptr %22, i32 0, i32 0
  %24 = load ptr, ptr %23, align 8, !tbaa !25
  %25 = load ptr, ptr %8, align 8, !tbaa !45
  %26 = getelementptr inbounds nuw %struct.xor_gen_ctx, ptr %25, i32 0, i32 1
  store ptr %24, ptr %26, align 8, !tbaa !49
  %27 = load ptr, ptr %8, align 8, !tbaa !45
  %28 = load ptr, ptr %7, align 8, !tbaa !43
  %29 = call i32 @xor_gen_set_params(ptr noundef %27, ptr noundef %28)
  %30 = icmp ne i32 %29, 0
  br i1 %30, label %33, label %31

31:                                               ; preds = %21
  %32 = load ptr, ptr %8, align 8, !tbaa !45
  call void @CRYPTO_free(ptr noundef %32, ptr noundef @.str.2, i32 noundef 939)
  store ptr null, ptr %4, align 8
  store i32 1, ptr %9, align 4
  br label %35

33:                                               ; preds = %21
  %34 = load ptr, ptr %8, align 8, !tbaa !45
  store ptr %34, ptr %4, align 8
  store i32 1, ptr %9, align 4
  br label %35

35:                                               ; preds = %33, %31, %13
  call void @llvm.lifetime.end.p0(i64 8, ptr %8) #8
  %36 = load ptr, ptr %4, align 8
  ret ptr %36
}