; Function Attrs: nounwind uwtable
define internal ptr @xor_gen_init(ptr noundef readonly captures(none) %0, i32 noundef %1, ptr noundef %2) #0 {
  %4 = and i32 %1, 7
  %5 = icmp eq i32 %4, 0
  br i1 %5, label %xor_gen_set_params.exit, label %6

6:                                                ; preds = %3
  %7 = tail call noalias ptr @CRYPTO_zalloc(i64 noundef 16, ptr noundef nonnull @.str.2, i32 noundef 933) #16
  %.not = icmp eq ptr %7, null
  br i1 %.not, label %.split, label %9

.split:                                           ; preds = %6
  %8 = load ptr, ptr %0, align 8, !tbaa !4
  store ptr %8, ptr inttoptr (i64 8 to ptr), align 8, !tbaa !35
  br label %22

9:                                                ; preds = %6
  store i32 %1, ptr %7, align 8, !tbaa !37
  %10 = load ptr, ptr %0, align 8, !tbaa !4
  %11 = getelementptr inbounds nuw i8, ptr %7, i64 8
  store ptr %10, ptr %11, align 8, !tbaa !35
  %12 = tail call ptr @OSSL_PARAM_locate_const(ptr noundef %2, ptr noundef nonnull @.str.11) #16
  %.not.i = icmp eq ptr %12, null
  br i1 %.not.i, label %xor_gen_set_params.exit, label %13

13:                                               ; preds = %9
  %14 = getelementptr inbounds nuw i8, ptr %12, i64 8
  %15 = load i32, ptr %14, align 8, !tbaa !38
  %.not8.i = icmp eq i32 %15, 4
  br i1 %.not8.i, label %16, label %22

16:                                               ; preds = %13
  %17 = getelementptr inbounds nuw i8, ptr %12, i64 16
  %18 = load ptr, ptr %17, align 8, !tbaa !28
  %19 = tail call i32 @strcmp(ptr noundef nonnull dereferenceable(1) %18, ptr noundef nonnull dereferenceable(13) @.str.12) #17
  %.not9.i = icmp eq i32 %19, 0
  br i1 %.not9.i, label %xor_gen_set_params.exit, label %20

20:                                               ; preds = %16
  %21 = tail call i32 @strcmp(ptr noundef nonnull dereferenceable(1) %18, ptr noundef nonnull dereferenceable(16) @.str.13) #17
  %.not10.i = icmp eq i32 %21, 0
  br i1 %.not10.i, label %xor_gen_set_params.exit, label %22

22:                                               ; preds = %.split, %20, %13
  tail call void @CRYPTO_free(ptr noundef %7, ptr noundef nonnull @.str.2, i32 noundef 939) #16
  br label %xor_gen_set_params.exit

xor_gen_set_params.exit:                          ; preds = %20, %16, %9, %3, %22
  %.0 = phi ptr [ null, %22 ], [ null, %3 ], [ %7, %9 ], [ %7, %16 ], [ %7, %20 ]
  ret ptr %.0
}